target datalayout = "e-m:e-p270:32:32-p271:32:32-p272:64:64-i64:64-i128:128-f80:128-n8:16:32:64-S128"
target triple = "x86_64-pc-linux-gnu"

%struct.add_p_state = type { %struct.add_i_state, %struct.strbuf, %struct.strbuf, %struct.strbuf, %struct.strbuf, ptr, i64, ptr, ptr }
%struct.add_i_state = type { ptr, i32, [75 x i8], [75 x i8], [75 x i8], [75 x i8], [75 x i8], [75 x i8], [75 x i8], [75 x i8], [75 x i8], i32, ptr, ptr }
%struct.strbuf = type { i64, i64, ptr }
%struct.file_diff = type { %struct.hunk, ptr, i64, i64, i8 }
%struct.hunk = type { i64, i64, i64, i64, i64, i64, i32, %struct.hunk_header }
%struct.hunk_header = type { i64, i64, i64, i64, i64, i64, i64, i64, i8 }

@strbuf_slopbuf = external global [0 x i8], align 1
@.str.90 = private unnamed_addr constant [11 x i8] c"./strbuf.h\00", align 1
@.str.91 = private unnamed_addr constant [30 x i8] c"strbuf_setlen() beyond buffer\00", align 1

; Function Attrs: inlinehint nounwind uwtable
define internal void @strbuf_setlen(ptr noundef %0, i64 noundef %1) #5 {
  %3 = alloca ptr, align 8
  %4 = alloca i64, align 8
  store ptr %0, ptr %3, align 8, !tbaa !56
  store i64 %1, ptr %4, align 8, !tbaa !20
  %5 = load i64, ptr %4, align 8, !tbaa !20
  %6 = load ptr, ptr %3, align 8, !tbaa !56
  %7 = getelementptr inbounds nuw %struct.strbuf, ptr %6, i32 0, i32 0
  %8 = load i64, ptr %7, align 8, !tbaa !110
  %9 = icmp ne i64 %8, 0
  br i1 %9, label %10, label %15

10:                                               ; preds = %2
  %11 = load ptr, ptr %3, align 8, !tbaa !56
  %12 = getelementptr inbounds nuw %struct.strbuf, ptr %11, i32 0, i32 0
  %13 = load i64, ptr %12, align 8, !tbaa !110
  %14 = sub i64 %13, 1
  br label %16

15:                                               ; preds = %2
  br label %16

16:                                               ; preds = %15, %10
  %17 = phi i64 [ %14, %10 ], [ 0, %15 ]
  %18 = icmp ugt i64 %5, %17
  br i1 %18, label %19, label %20

19:                                               ; preds = %16
  call void (ptr, i32, ptr, ...) @BUG_fl(ptr noundef @.str.90, i32 noundef 167, ptr noundef @.str.91) #12
  unreachable

20:                                               ; preds = %16
  %21 = load i64, ptr %4, align 8, !tbaa !20
  %22 = load ptr, ptr %3, align 8, !tbaa !56
  %23 = getelementptr inbounds nuw %struct.strbuf, ptr %22, i32 0, i32 1
  store i64 %21, ptr %23, align 8, !tbaa !75
  %24 = load ptr, ptr %3, align 8, !tbaa !56
  %25 = getelementptr inbounds nuw %struct.strbuf, ptr %24, i32 0, i32 2
  %26 = load ptr, ptr %25, align 8, !tbaa !17
  %27 = icmp ne ptr %26, @strbuf_slopbuf
  br i1 %27, label %28, label %34

28:                                               ; preds = %20
  %29 = load ptr, ptr %3, align 8, !tbaa !56
  %30 = getelementptr inbounds nuw %struct.strbuf, ptr %29, i32 0, i32 2
  %31 = load ptr, ptr %30, align 8, !tbaa !17
  %32 = load i64, ptr %4, align 8, !tbaa !20
  %33 = getelementptr inbounds nuw i8, ptr %31, i64 %32
  store i8 0, ptr %33, align 1, !tbaa !58
  br label %35

34:                                               ; preds = %20
  br label %35

35:                                               ; preds = %34, %28
  ret void
}

; Function Attrs: nounwind uwtable
define internal void @render_diff_header(ptr noundef %0, ptr noundef %1, i32 noundef %2, ptr noundef %3) #0 {
  %5 = alloca ptr, align 8
  %6 = alloca ptr, align 8
  %7 = alloca i32, align 4
  %8 = alloca ptr, align 8
  %9 = alloca i32, align 4
  %10 = alloca ptr, align 8
  %11 = alloca ptr, align 8
  %12 = alloca i32, align 4
  %13 = alloca ptr, align 8
  %14 = alloca ptr, align 8
  store ptr %0, ptr %5, align 8, !tbaa !53
  store ptr %1, ptr %6, align 8, !tbaa !59
  store i32 %2, ptr %7, align 4, !tbaa !9
  store ptr %3, ptr %8, align 8, !tbaa !56
  call void @llvm.lifetime.start.p0(i64 4, ptr %9) #10
  %15 = load ptr, ptr %6, align 8, !tbaa !59
  %16 = getelementptr inbounds nuw %struct.file_diff, ptr %15, i32 0, i32 4
  %17 = load i8, ptr %16, align 8
  %18 = lshr i8 %17, 2
  %19 = and i8 %18, 1
  %20 = zext i8 %19 to i32
  %21 = icmp ne i32 %20, 0
  br i1 %21, label %22, label %29

22:                                               ; preds = %4
  %23 = load ptr, ptr %6, align 8, !tbaa !59
  %24 = getelementptr inbounds nuw %struct.file_diff, ptr %23, i32 0, i32 1
  %25 = load ptr, ptr %24, align 8, !tbaa !81
  %26 = getelementptr inbounds nuw %struct.hunk, ptr %25, i32 0, i32 6
  %27 = load i32, ptr %26, align 8, !tbaa !91
  %28 = icmp ne i32 %27, 2
  br label %29

29:                                               ; preds = %22, %4
  %30 = phi i1 [ false, %4 ], [ %28, %22 ]
  %31 = zext i1 %30 to i32
  store i32 %31, ptr %9, align 4, !tbaa !9
  call void @llvm.lifetime.start.p0(i64 8, ptr %10) #10
  %32 = load ptr, ptr %6, align 8, !tbaa !59
  %33 = getelementptr inbounds nuw %struct.file_diff, ptr %32, i32 0, i32 0
  store ptr %33, ptr %10, align 8, !tbaa !60
  call void @llvm.lifetime.start.p0(i64 8, ptr %11) #10
  %34 = load ptr, ptr %6, align 8, !tbaa !59
  %35 = getelementptr inbounds nuw %struct.file_diff, ptr %34, i32 0, i32 1
  %36 = load ptr, ptr %35, align 8, !tbaa !81
  store ptr %36, ptr %11, align 8, !tbaa !60
  %37 = load i32, ptr %9, align 4, !tbaa !9
  %38 = icmp ne i32 %37, 0
  br i1 %38, label %44, label %39

39:                                               ; preds = %29
  %40 = load ptr, ptr %5, align 8, !tbaa !53
  %41 = load ptr, ptr %10, align 8, !tbaa !60
  %42 = load i32, ptr %7, align 4, !tbaa !9
  %43 = load ptr, ptr %8, align 8, !tbaa !56
  call void @render_hunk(ptr noundef %40, ptr noundef %41, i64 noundef 0, i32 noundef %42, ptr noundef %43)
  store i32 1, ptr %12, align 4
  br label %110

44:                                               ; preds = %29
  %45 = load i32, ptr %7, align 4, !tbaa !9
  %46 = icmp ne i32 %45, 0
  br i1 %46, label %47, label %78

47:                                               ; preds = %44
  call void @llvm.lifetime.start.p0(i64 8, ptr %13) #10
  %48 = load ptr, ptr %5, align 8, !tbaa !53
  %49 = getelementptr inbounds nuw %struct.add_p_state, ptr %48, i32 0, i32 4
  %50 = getelementptr inbounds nuw %struct.strbuf, ptr %49, i32 0, i32 2
  %51 = load ptr, ptr %50, align 8, !tbaa !122
  store ptr %51, ptr %13, align 8, !tbaa !11
  %52 = load ptr, ptr %8, align 8, !tbaa !56
  %53 = load ptr, ptr %13, align 8, !tbaa !11
  %54 = load ptr, ptr %10, align 8, !tbaa !60
  %55 = getelementptr inbounds nuw %struct.hunk, ptr %54, i32 0, i32 2
  %56 = load i64, ptr %55, align 8, !tbaa !78
  %57 = getelementptr inbounds nuw i8, ptr %53, i64 %56
  %58 = load ptr, ptr %11, align 8, !tbaa !60
  %59 = getelementptr inbounds nuw %struct.hunk, ptr %58, i32 0, i32 2
  %60 = load i64, ptr %59, align 8, !tbaa !78
  %61 = load ptr, ptr %10, align 8, !tbaa !60
  %62 = getelementptr inbounds nuw %struct.hunk, ptr %61, i32 0, i32 2
  %63 = load i64, ptr %62, align 8, !tbaa !78
  %64 = sub i64 %60, %63
  call void @strbuf_add(ptr noundef %52, ptr noundef %57, i64 noundef %64)
  %65 = load ptr, ptr %8, align 8, !tbaa !56
  %66 = load ptr, ptr %13, align 8, !tbaa !11
  %67 = load ptr, ptr %11, align 8, !tbaa !60
  %68 = getelementptr inbounds nuw %struct.hunk, ptr %67, i32 0, i32 3
  %69 = load i64, ptr %68, align 8, !tbaa !84
  %70 = getelementptr inbounds nuw i8, ptr %66, i64 %69
  %71 = load ptr, ptr %10, align 8, !tbaa !60
  %72 = getelementptr inbounds nuw %struct.hunk, ptr %71, i32 0, i32 3
  %73 = load i64, ptr %72, align 8, !tbaa !84
  %74 = load ptr, ptr %11, align 8, !tbaa !60
  %75 = getelementptr inbounds nuw %struct.hunk, ptr %74, i32 0, i32 3
  %76 = load i64, ptr %75, align 8, !tbaa !84
  %77 = sub i64 %73, %76
  call void @strbuf_add(ptr noundef %65, ptr noundef %70, i64 noundef %77)
  call void @llvm.lifetime.end.p0(i64 8, ptr %13) #10
  br label %109

78:                                               ; preds = %44
  call void @llvm.lifetime.start.p0(i64 8, ptr %14) #10
  %79 = load ptr, ptr %5, align 8, !tbaa !53
  %80 = getelementptr inbounds nuw %struct.add_p_state, ptr %79, i32 0, i32 3
  %81 = getelementptr inbounds nuw %struct.strbuf, ptr %80, i32 0, i32 2
  %82 = load ptr, ptr %81, align 8, !tbaa !116
  store ptr %82, ptr %14, align 8, !tbaa !11
  %83 = load ptr, ptr %8, align 8, !tbaa !56
  %84 = load ptr, ptr %14, align 8, !tbaa !11
  %85 = load ptr, ptr %10, align 8, !tbaa !60
  %86 = getelementptr inbounds nuw %struct.hunk, ptr %85, i32 0, i32 0
  %87 = load i64, ptr %86, align 8, !tbaa !77
  %88 = getelementptr inbounds nuw i8, ptr %84, i64 %87
  %89 = load ptr, ptr %11, align 8, !tbaa !60
  %90 = getelementptr inbounds nuw %struct.hunk, ptr %89, i32 0, i32 0
  %91 = load i64, ptr %90, align 8, !tbaa !77
  %92 = load ptr, ptr %10, align 8, !tbaa !60
  %93 = getelementptr inbounds nuw %struct.hunk, ptr %92, i32 0, i32 0
  %94 = load i64, ptr %93, align 8, !tbaa !77
  %95 = sub i64 %91, %94
  call void @strbuf_add(ptr noundef %83, ptr noundef %88, i64 noundef %95)
  %96 = load ptr, ptr %8, align 8, !tbaa !56
  %97 = load ptr, ptr %14, align 8, !tbaa !11
  %98 = load ptr, ptr %11, align 8, !tbaa !60
  %99 = getelementptr inbounds nuw %struct.hunk, ptr %98, i32 0, i32 1
  %100 = load i64, ptr %99, align 8, !tbaa !82
  %101 = getelementptr inbounds nuw i8, ptr %97, i64 %100
  %102 = load ptr, ptr %10, align 8, !tbaa !60
  %103 = getelementptr inbounds nuw %struct.hunk, ptr %102, i32 0, i32 1
  %104 = load i64, ptr %103, align 8, !tbaa !82
  %105 = load ptr, ptr %11, align 8, !tbaa !60
  %106 = getelementptr inbounds nuw %struct.hunk, ptr %105, i32 0, i32 1
  %107 = load i64, ptr %106, align 8, !tbaa !82
  %108 = sub i64 %104, %107
  call void @strbuf_add(ptr noundef %96, ptr noundef %101, i64 noundef %108)
  call void @llvm.lifetime.end.p0(i64 8, ptr %14) #10
  br label %109

109:                                              ; preds = %78, %47
  store i32 0, ptr %12, align 4
  br label %110

110:                                              ; preds = %109, %39
  call void @llvm.lifetime.end.p0(i64 8, ptr %11) #10
  call void @llvm.lifetime.end.p0(i64 8, ptr %10) #10
  call void @llvm.lifetime.end.p0(i64 4, ptr %9) #10
  %111 = load i32, ptr %12, align 4
  switch i32 %111, label %113 [
    i32 0, label %112
    i32 1, label %112
  ]

112:                                              ; preds = %110, %110
  ret void

113:                                              ; preds = %110
  unreachable
}

; Function Attrs: nounwind uwtable
define internal void @reassemble_patch(ptr noundef %0, ptr noundef %1, i32 noundef %2, ptr noundef %3) #0 {
  %5 = alloca ptr, align 8
  %6 = alloca ptr, align 8
  %7 = alloca i32, align 4
  %8 = alloca ptr, align 8
  %9 = alloca ptr, align 8
  %10 = alloca i64, align 8
  %11 = alloca i64, align 8
  %12 = alloca i64, align 8
  %13 = alloca %struct.hunk, align 8
  store ptr %0, ptr %5, align 8, !tbaa !53
  store ptr %1, ptr %6, align 8, !tbaa !59
  store i32 %2, ptr %7, align 4, !tbaa !9
  store ptr %3, ptr %8, align 8, !tbaa !56
  call void @llvm.lifetime.start.p0(i64 8, ptr %9) #10
  call void @llvm.lifetime.start.p0(i64 8, ptr %10) #10
  %14 = load ptr, ptr %5, align 8, !tbaa !53
  %15 = getelementptr inbounds nuw %struct.add_p_state, ptr %14, i32 0, i32 3
  %16 = getelementptr inbounds nuw %struct.strbuf, ptr %15, i32 0, i32 1
  %17 = load i64, ptr %16, align 8, !tbaa !117
  store i64 %17, ptr %10, align 8, !tbaa !20
  call void @llvm.lifetime.start.p0(i64 8, ptr %11) #10
  call void @llvm.lifetime.start.p0(i64 8, ptr %12) #10
  store i64 0, ptr %12, align 8, !tbaa !20
  %18 = load ptr, ptr %5, align 8, !tbaa !53
  %19 = load ptr, ptr %6, align 8, !tbaa !59
  %20 = load ptr, ptr %8, align 8, !tbaa !56
  call void @render_diff_header(ptr noundef %18, ptr noundef %19, i32 noundef 0, ptr noundef %20)
  %21 = load ptr, ptr %6, align 8, !tbaa !59
  %22 = getelementptr inbounds nuw %struct.file_diff, ptr %21, i32 0, i32 4
  %23 = load i8, ptr %22, align 8
  %24 = lshr i8 %23, 2
  %25 = and i8 %24, 1
  %26 = zext i8 %25 to i32
  %27 = zext i32 %26 to i64
  store i64 %27, ptr %11, align 8, !tbaa !20
  br label %28

28:                                               ; preds = %80, %4
  %29 = load i64, ptr %11, align 8, !tbaa !20
  %30 = load ptr, ptr %6, align 8, !tbaa !59
  %31 = getelementptr inbounds nuw %struct.file_diff, ptr %30, i32 0, i32 2
  %32 = load i64, ptr %31, align 8, !tbaa !46
  %33 = icmp ult i64 %29, %32
  br i1 %33, label %34, label %83

34:                                               ; preds = %28
  call void @llvm.lifetime.start.p0(i64 128, ptr %13) #10
  call void @llvm.memset.p0.i64(ptr align 8 %13, i8 0, i64 128, i1 false)
  %35 = load ptr, ptr %6, align 8, !tbaa !59
  %36 = getelementptr inbounds nuw %struct.file_diff, ptr %35, i32 0, i32 1
  %37 = load ptr, ptr %36, align 8, !tbaa !81
  %38 = load i64, ptr %11, align 8, !tbaa !20
  %39 = getelementptr inbounds nuw %struct.hunk, ptr %37, i64 %38
  store ptr %39, ptr %9, align 8, !tbaa !60
  %40 = load i32, ptr %7, align 4, !tbaa !9
  %41 = icmp ne i32 %40, 0
  br i1 %41, label %59, label %42

42:                                               ; preds = %34
  %43 = load ptr, ptr %9, align 8, !tbaa !60
  %44 = getelementptr inbounds nuw %struct.hunk, ptr %43, i32 0, i32 6
  %45 = load i32, ptr %44, align 8, !tbaa !91
  %46 = icmp ne i32 %45, 2
  br i1 %46, label %47, label %59

47:                                               ; preds = %42
  %48 = load ptr, ptr %9, align 8, !tbaa !60
  %49 = getelementptr inbounds nuw %struct.hunk, ptr %48, i32 0, i32 7
  %50 = getelementptr inbounds nuw %struct.hunk_header, ptr %49, i32 0, i32 1
  %51 = load i64, ptr %50, align 8, !tbaa !137
  %52 = load ptr, ptr %9, align 8, !tbaa !60
  %53 = getelementptr inbounds nuw %struct.hunk, ptr %52, i32 0, i32 7
  %54 = getelementptr inbounds nuw %struct.hunk_header, ptr %53, i32 0, i32 3
  %55 = load i64, ptr %54, align 8, !tbaa !138
  %56 = sub i64 %51, %55
  %57 = load i64, ptr %12, align 8, !tbaa !20
  %58 = add i64 %57, %56
  store i64 %58, ptr %12, align 8, !tbaa !20
  br label %79

59:                                               ; preds = %42, %34
  %60 = load ptr, ptr %5, align 8, !tbaa !53
  %61 = load ptr, ptr %6, align 8, !tbaa !59
  %62 = load i32, ptr %7, align 4, !tbaa !9
  %63 = call i32 @merge_hunks(ptr noundef %60, ptr noundef %61, ptr noundef %11, i32 noundef %62, ptr noundef %13)
  %64 = icmp ne i32 %63, 0
  br i1 %64, label %65, label %66

65:                                               ; preds = %59
  store ptr %13, ptr %9, align 8, !tbaa !60
  br label %66

66:                                               ; preds = %65, %59
  %67 = load ptr, ptr %5, align 8, !tbaa !53
  %68 = load ptr, ptr %9, align 8, !tbaa !60
  %69 = load i64, ptr %12, align 8, !tbaa !20
  %70 = load ptr, ptr %8, align 8, !tbaa !56
  call void @render_hunk(ptr noundef %67, ptr noundef %68, i64 noundef %69, i32 noundef 0, ptr noundef %70)
  %71 = load ptr, ptr %5, align 8, !tbaa !53
  %72 = getelementptr inbounds nuw %struct.add_p_state, ptr %71, i32 0, i32 3
  %73 = load i64, ptr %10, align 8, !tbaa !20
  call void @strbuf_setlen(ptr noundef %72, i64 noundef %73)
  %74 = load ptr, ptr %9, align 8, !tbaa !60
  %75 = getelementptr inbounds nuw %struct.hunk, ptr %74, i32 0, i32 5
  %76 = load i64, ptr %75, align 8, !tbaa !139
  %77 = load i64, ptr %12, align 8, !tbaa !20
  %78 = add nsw i64 %77, %76
  store i64 %78, ptr %12, align 8, !tbaa !20
  br label %79

79:                                               ; preds = %66, %47
  call void @llvm.lifetime.end.p0(i64 128, ptr %13) #10
  br label %80

80:                                               ; preds = %79
  %81 = load i64, ptr %11, align 8, !tbaa !20
  %82 = add i64 %81, 1
  store i64 %82, ptr %11, align 8, !tbaa !20
  br label %28, !llvm.loop !140

83:                                               ; preds = %28
  call void @llvm.lifetime.end.p0(i64 8, ptr %12) #10
  call void @llvm.lifetime.end.p0(i64 8, ptr %11) #10
  call void @llvm.lifetime.end.p0(i64 8, ptr %10) #10
  call void @llvm.lifetime.end.p0(i64 8, ptr %9) #10
  ret void
}