; Function Attrs: nounwind uwtable
define internal fastcc void @reassemble_patch(ptr noundef nonnull %0, ptr noundef readonly captures(none) %1, i32 noundef range(i32 0, 2) %2, ptr noundef nonnull %3) unnamed_addr #0 {
  %5 = alloca i64, align 8
  %6 = alloca %struct.hunk, align 8
  %7 = getelementptr inbounds nuw i8, ptr %0, i64 760
  %8 = getelementptr inbounds nuw i8, ptr %0, i64 768
  %9 = load i64, ptr %8, align 8, !tbaa !103
  call void @llvm.lifetime.start.p0(i64 8, ptr nonnull %5) #17
  %10 = getelementptr inbounds nuw i8, ptr %1, i64 152
  %11 = load i8, ptr %10, align 8
  %12 = and i8 %11, 4
  %.not.i = icmp eq i8 %12, 0
  br i1 %.not.i, label %.thread.i, label %13

13:                                               ; preds = %4
  %14 = getelementptr inbounds nuw i8, ptr %1, i64 128
  %15 = load ptr, ptr %14, align 8, !tbaa !73
  %16 = getelementptr inbounds nuw i8, ptr %15, i64 48
  %17 = load i32, ptr %16, align 8, !tbaa !79
  %.not32.i = icmp eq i32 %17, 2
  br i1 %.not32.i, label %.thread.i, label %18

.thread.i:                                        ; preds = %13, %4
  tail call fastcc void @render_hunk(ptr noundef nonnull %0, ptr noundef nonnull readonly %1, i64 noundef 0, i32 noundef 0, ptr noundef nonnull %3)
  br label %render_diff_header.exit

18:                                               ; preds = %13
  %19 = getelementptr inbounds nuw i8, ptr %0, i64 776
  %20 = load ptr, ptr %19, align 8, !tbaa !81
  %21 = load i64, ptr %1, align 8, !tbaa !66
  %22 = getelementptr inbounds nuw i8, ptr %20, i64 %21
  %23 = load i64, ptr %15, align 8, !tbaa !66
  %24 = sub i64 %23, %21
  tail call void @strbuf_add(ptr noundef nonnull %3, ptr noundef %22, i64 noundef %24) #17
  %25 = getelementptr inbounds nuw i8, ptr %15, i64 8
  %26 = load i64, ptr %25, align 8, !tbaa !75
  %27 = getelementptr inbounds nuw i8, ptr %20, i64 %26
  %28 = getelementptr inbounds nuw i8, ptr %1, i64 8
  %29 = load i64, ptr %28, align 8, !tbaa !75
  %30 = sub i64 %29, %26
  tail call void @strbuf_add(ptr noundef nonnull %3, ptr noundef %27, i64 noundef %30) #17
  br label %render_diff_header.exit

render_diff_header.exit:                          ; preds = %.thread.i, %18
  %31 = load i8, ptr %10, align 8
  %32 = lshr i8 %31, 2
  %33 = and i8 %32, 1
  %34 = zext nneg i8 %33 to i64
  %35 = getelementptr inbounds nuw i8, ptr %1, i64 136
  store i64 %34, ptr %5, align 8, !tbaa !99
  %36 = load i64, ptr %35, align 8, !tbaa !69
  %37 = icmp ugt i64 %36, %34
  br i1 %37, label %.lr.ph, label %._crit_edge

.lr.ph:                                           ; preds = %render_diff_header.exit
  %38 = getelementptr inbounds nuw i8, ptr %1, i64 128
  %.not = icmp eq i32 %2, 0
  %39 = getelementptr inbounds nuw i8, ptr %0, i64 776
  br i1 %.not, label %.lr.ph.split.us, label %.split

.lr.ph.split.us:                                  ; preds = %.lr.ph, %59
  %40 = phi i64 [ %60, %59 ], [ %36, %.lr.ph ]
  %.029.us = phi i64 [ %.1.us, %59 ], [ 0, %.lr.ph ]
  %storemerge28.us = phi i64 [ %62, %59 ], [ %34, %.lr.ph ]
  call void @llvm.lifetime.start.p0(i64 128, ptr nonnull %6) #17
  call void @llvm.memset.p0.i64(ptr noundef nonnull align 8 dereferenceable(128) %6, i8 0, i64 128, i1 false)
  %41 = load ptr, ptr %38, align 8, !tbaa !73
  %42 = getelementptr inbounds nuw %struct.hunk, ptr %41, i64 %storemerge28.us
  %43 = getelementptr inbounds nuw i8, ptr %42, i64 48
  %44 = load i32, ptr %43, align 8, !tbaa !79
  %.not25.us = icmp eq i32 %44, 2
  br i1 %.not25.us, label %.split23.us, label %45

45:                                               ; preds = %.lr.ph.split.us
  %46 = getelementptr inbounds nuw i8, ptr %42, i64 64
  %47 = load i64, ptr %46, align 8, !tbaa !130
  %48 = getelementptr inbounds nuw i8, ptr %42, i64 80
  %49 = load i64, ptr %48, align 8, !tbaa !131
  %50 = sub i64 %47, %49
  br label %59

.split23.us:                                      ; preds = %.lr.ph.split.us
  %51 = call fastcc i32 @merge_hunks(ptr noundef %0, ptr noundef nonnull %1, ptr noundef %5, i32 noundef 0, ptr noundef %6)
  %.not26.us = icmp eq i32 %51, 0
  %spec.select.us = select i1 %.not26.us, ptr %42, ptr %6
  call fastcc void @render_hunk(ptr noundef %0, ptr noundef %spec.select.us, i64 noundef %.029.us, i32 noundef 0, ptr noundef %3)
  %52 = load i64, ptr %7, align 8, !tbaa !58
  %spec.select.i.us = tail call i64 @llvm.usub.sat.i64(i64 %52, i64 1)
  %53 = icmp ugt i64 %9, %spec.select.i.us
  br i1 %53, label %.split31.us, label %54

54:                                               ; preds = %.split23.us
  store i64 %9, ptr %8, align 8, !tbaa !56
  %55 = load ptr, ptr %39, align 8, !tbaa !12
  %.not9.i.us = icmp eq ptr %55, @strbuf_slopbuf
  br i1 %.not9.i.us, label %strbuf_setlen.exit.us, label %56

56:                                               ; preds = %54
  %57 = getelementptr inbounds nuw i8, ptr %55, i64 %9
  store i8 0, ptr %57, align 1, !tbaa !57
  br label %strbuf_setlen.exit.us

strbuf_setlen.exit.us:                            ; preds = %56, %54
  %spec.select.sroa.sel.v.us.sroa.sel.v.sroa.sel.v = select i1 %.not26.us, ptr %42, ptr %6
  %spec.select.sroa.sel.v.us.sroa.sel.v.sroa.sel = getelementptr inbounds nuw i8, ptr %spec.select.sroa.sel.v.us.sroa.sel.v.sroa.sel.v, i64 40
  %58 = load i64, ptr %spec.select.sroa.sel.v.us.sroa.sel.v.sroa.sel, align 8, !tbaa !113
  %.pre = load i64, ptr %5, align 8, !tbaa !99
  %.pre37 = load i64, ptr %35, align 8, !tbaa !69
  br label %59

59:                                               ; preds = %strbuf_setlen.exit.us, %45
  %60 = phi i64 [ %.pre37, %strbuf_setlen.exit.us ], [ %40, %45 ]
  %61 = phi i64 [ %.pre, %strbuf_setlen.exit.us ], [ %storemerge28.us, %45 ]
  %.pn.us = phi i64 [ %58, %strbuf_setlen.exit.us ], [ %50, %45 ]
  %.1.us = add i64 %.pn.us, %.029.us
  call void @llvm.lifetime.end.p0(i64 128, ptr nonnull %6) #17
  %62 = add i64 %61, 1
  store i64 %62, ptr %5, align 8, !tbaa !99
  %63 = icmp ult i64 %62, %60
  br i1 %63, label %.lr.ph.split.us, label %._crit_edge, !llvm.loop !132

.split:                                           ; preds = %.lr.ph, %strbuf_setlen.exit
  %.029 = phi i64 [ %.1, %strbuf_setlen.exit ], [ 0, %.lr.ph ]
  %storemerge28 = phi i64 [ %75, %strbuf_setlen.exit ], [ %34, %.lr.ph ]
  call void @llvm.lifetime.start.p0(i64 128, ptr nonnull %6) #17
  call void @llvm.memset.p0.i64(ptr noundef nonnull align 8 dereferenceable(128) %6, i8 0, i64 128, i1 false)
  %64 = load ptr, ptr %38, align 8, !tbaa !73
  %65 = getelementptr inbounds nuw %struct.hunk, ptr %64, i64 %storemerge28
  %66 = call fastcc i32 @merge_hunks(ptr noundef %0, ptr noundef nonnull %1, ptr noundef %5, i32 noundef 1, ptr noundef %6)
  %.not26 = icmp eq i32 %66, 0
  %spec.select = select i1 %.not26, ptr %65, ptr %6
  call fastcc void @render_hunk(ptr noundef %0, ptr noundef %spec.select, i64 noundef %.029, i32 noundef 0, ptr noundef %3)
  %67 = load i64, ptr %7, align 8, !tbaa !58
  %spec.select.i = tail call i64 @llvm.usub.sat.i64(i64 %67, i64 1)
  %68 = icmp ugt i64 %9, %spec.select.i
  br i1 %68, label %.split31.us, label %69

.split31.us:                                      ; preds = %.split, %.split23.us
  tail call void (ptr, i32, ptr, ...) @BUG_fl(ptr noundef nonnull @.str.90, i32 noundef 167, ptr noundef nonnull @.str.91) #19
  unreachable

69:                                               ; preds = %.split
  store i64 %9, ptr %8, align 8, !tbaa !56
  %70 = load ptr, ptr %39, align 8, !tbaa !12
  %.not9.i = icmp eq ptr %70, @strbuf_slopbuf
  br i1 %.not9.i, label %strbuf_setlen.exit, label %71

71:                                               ; preds = %69
  %72 = getelementptr inbounds nuw i8, ptr %70, i64 %9
  store i8 0, ptr %72, align 1, !tbaa !57
  br label %strbuf_setlen.exit

strbuf_setlen.exit:                               ; preds = %69, %71
  %spec.select.sroa.sel.v.sroa.sel.v.sroa.sel.v = select i1 %.not26, ptr %65, ptr %6
  %spec.select.sroa.sel.v.sroa.sel.v.sroa.sel = getelementptr inbounds nuw i8, ptr %spec.select.sroa.sel.v.sroa.sel.v.sroa.sel.v, i64 40
  %73 = load i64, ptr %spec.select.sroa.sel.v.sroa.sel.v.sroa.sel, align 8, !tbaa !113
  %.1 = add i64 %73, %.029
  call void @llvm.lifetime.end.p0(i64 128, ptr nonnull %6) #17
  %74 = load i64, ptr %5, align 8, !tbaa !99
  %75 = add i64 %74, 1
  store i64 %75, ptr %5, align 8, !tbaa !99
  %76 = load i64, ptr %35, align 8, !tbaa !69
  %77 = icmp ult i64 %75, %76
  br i1 %77, label %.split, label %._crit_edge, !llvm.loop !132

._crit_edge:                                      ; preds = %strbuf_setlen.exit, %59, %render_diff_header.exit
  call void @llvm.lifetime.end.p0(i64 8, ptr nonnull %5) #17
  ret void
}